; Function Attrs: mustprogress uwtable
define noundef i64 @_ZN8proxygen26PassThroughHTTPCodecFilter15generateBodyDSREmmN5folly8OptionalIhEEb(ptr nocapture noundef nonnull readonly align 8 dereferenceable(72) %this, i64 noundef %stream, i64 noundef %length, ptr nocapture noundef readonly %padding, i1 noundef zeroext %eom) unnamed_addr #3 align 2 personality ptr @__gxx_personality_v0 {
entry:
  %agg.tmp = alloca %"class.folly::Optional.68", align 1
  %call_ = getelementptr inbounds i8, ptr %this, i64 24
  %0 = load ptr, ptr %call_, align 8
  store i8 0, ptr %agg.tmp, align 1
  %hasValue.i.i = getelementptr inbounds i8, ptr %agg.tmp, i64 1
  store i8 0, ptr %hasValue.i.i, align 1
  %hasValue.i.i.i = getelementptr inbounds i8, ptr %padding, i64 1
  %1 = load i8, ptr %hasValue.i.i.i, align 1
  %2 = and i8 %1, 1
  %tobool.i.i.not.i = icmp eq i8 %2, 0
  br i1 %tobool.i.i.not.i, label %_ZN5folly8OptionalIhEC2ERKS1_.exit, label %invoke.cont2.i

invoke.cont2.i:                                   ; preds = %entry
  %3 = load i8, ptr %padding, align 1
  store i8 %3, ptr %agg.tmp, align 1
  store i8 1, ptr %hasValue.i.i, align 1
  br label %_ZN5folly8OptionalIhEC2ERKS1_.exit

_ZN5folly8OptionalIhEC2ERKS1_.exit:               ; preds = %entry, %invoke.cont2.i
  %vtable = load ptr, ptr %0, align 8
  %vfn = getelementptr inbounds i8, ptr %vtable, i64 216
  %4 = load ptr, ptr %vfn, align 8
  %call = call noundef i64 %4(ptr noundef nonnull align 8 dereferenceable(8) %0, i64 noundef %stream, i64 noundef %length, ptr noundef nonnull %agg.tmp, i1 noundef zeroext %eom)
  ret i64 %call
}